; Function Attrs: nounwind uwtable
define dso_local void @ExecAssignExprContext(ptr noundef %0, ptr noundef writeonly captures(none) initializes((128, 136)) %1) local_unnamed_addr #0 {
  %3 = getelementptr inbounds nuw i8, ptr %0, i64 192
  %4 = load ptr, ptr %3, align 8
  %5 = load ptr, ptr @CurrentMemoryContext, align 8
  store ptr %4, ptr @CurrentMemoryContext, align 8
  %6 = tail call noundef ptr @palloc0(i64 noundef 144) #12
  store i32 381, ptr %6, align 4
  %7 = getelementptr inbounds nuw i8, ptr %6, i64 8
  tail call void @llvm.memset.p0.i64(ptr noundef nonnull align 8 dereferenceable(24) %7, i8 0, i64 24, i1 false)
  %8 = load ptr, ptr %3, align 8
  %9 = getelementptr inbounds nuw i8, ptr %6, i64 32
  store ptr %8, ptr %9, align 8
  %10 = tail call ptr @AllocSetContextCreateInternal(ptr noundef %8, ptr noundef nonnull @.str.1, i64 noundef 0, i64 noundef 8192, i64 noundef 8388608) #12
  %11 = getelementptr inbounds nuw i8, ptr %6, i64 40
  store ptr %10, ptr %11, align 8
  %12 = getelementptr inbounds nuw i8, ptr %0, i64 176
  %13 = load ptr, ptr %12, align 8
  %14 = getelementptr inbounds nuw i8, ptr %6, i64 48
  store ptr %13, ptr %14, align 8
  %15 = getelementptr inbounds nuw i8, ptr %0, i64 168
  %16 = load ptr, ptr %15, align 8
  %17 = getelementptr inbounds nuw i8, ptr %6, i64 56
  store ptr %16, ptr %17, align 8
  %18 = getelementptr inbounds nuw i8, ptr %6, i64 64
  %19 = getelementptr inbounds nuw i8, ptr %6, i64 88
  tail call void @llvm.memset.p0.i64(ptr noundef nonnull align 8 dereferenceable(24) %18, i8 0, i64 24, i1 false)
  store i8 1, ptr %19, align 8
  %20 = getelementptr inbounds nuw i8, ptr %6, i64 96
  store i64 0, ptr %20, align 8
  %21 = getelementptr inbounds nuw i8, ptr %6, i64 104
  store i8 1, ptr %21, align 8
  %22 = getelementptr inbounds nuw i8, ptr %6, i64 128
  store ptr %0, ptr %22, align 8
  %23 = getelementptr inbounds nuw i8, ptr %6, i64 136
  store ptr null, ptr %23, align 8
  %24 = getelementptr inbounds nuw i8, ptr %0, i64 240
  %25 = load ptr, ptr %24, align 8
  %26 = tail call ptr @lcons(ptr noundef nonnull %6, ptr noundef %25) #12
  store ptr %26, ptr %24, align 8
  store ptr %5, ptr @CurrentMemoryContext, align 8
  %27 = getelementptr inbounds nuw i8, ptr %1, i64 128
  store ptr %6, ptr %27, align 8
  ret void
}